target datalayout = "e-m:e-p270:32:32-p271:32:32-p272:64:64-i64:64-i128:128-f80:128-n8:16:32:64-S128"
target triple = "x86_64-unknown-linux-gnu"

%struct.tdefl_compressor = type { ptr, ptr, i32, [2 x i32], i32, i32, i32, i32, i32, ptr, ptr, ptr, ptr, i32, i32, i32, i32, i32, i32, i32, i32, i32, i32, i32, i32, i32, i32, ptr, ptr, ptr, ptr, i32, ptr, i64, i64, [33025 x i8], [3 x [288 x i16]], [3 x [288 x i16]], [3 x [288 x i8]], [65536 x i8], [32768 x i16], [32768 x i16], [85196 x i8] }
%struct.mz_zip_archive = type { i64, i64, i32, i32, i32, i32, i64, ptr, ptr, ptr, ptr, ptr, ptr, ptr, ptr, ptr }
%struct.mz_zip_internal_state_tag = type { %struct.mz_zip_array, %struct.mz_zip_array, %struct.mz_zip_array, i32, i32, i32, ptr, i64, ptr, i64, i64 }
%struct.mz_zip_array = type { ptr, i64, i64, i32 }
%struct.mz_zip_writer_add_state = type { ptr, i64, i64 }
%struct.zip_t = type { %struct.mz_zip_archive, i32, %struct.zip_entry_t }
%struct.zip_entry_t = type { i32, ptr, i64, i64, i32, i64, [30 x i8], i64, i16, %struct.mz_zip_writer_add_state, %struct.tdefl_compressor, i32, i64 }

@.str.17 = private unnamed_addr constant [4 x i8] c"r+b\00", align 1

; Function Attrs: nounwind uwtable
define hidden i32 @mz_zip_writer_init_from_reader(ptr noundef %pZip, ptr noundef %pFilename) #0 {
entry:
  %retval = alloca i32, align 4
  %pZip.addr = alloca ptr, align 8
  %pFilename.addr = alloca ptr, align 8
  %pState = alloca ptr, align 8
  store ptr %pZip, ptr %pZip.addr, align 8
  store ptr %pFilename, ptr %pFilename.addr, align 8
  %0 = load ptr, ptr %pZip.addr, align 8
  %tobool = icmp ne ptr %0, null
  br i1 %tobool, label %lor.lhs.false, label %if.then

lor.lhs.false:                                    ; preds = %entry
  %1 = load ptr, ptr %pZip.addr, align 8
  %m_pState = getelementptr inbounds %struct.mz_zip_archive, ptr %1, i32 0, i32 15
  %2 = load ptr, ptr %m_pState, align 8
  %tobool1 = icmp ne ptr %2, null
  br i1 %tobool1, label %lor.lhs.false2, label %if.then

lor.lhs.false2:                                   ; preds = %lor.lhs.false
  %3 = load ptr, ptr %pZip.addr, align 8
  %m_zip_mode = getelementptr inbounds %struct.mz_zip_archive, ptr %3, i32 0, i32 3
  %4 = load i32, ptr %m_zip_mode, align 4
  %cmp = icmp ne i32 %4, 1
  br i1 %cmp, label %if.then, label %if.end

if.then:                                          ; preds = %lor.lhs.false2, %lor.lhs.false, %entry
  store i32 0, ptr %retval, align 4
  br label %return

if.end:                                           ; preds = %lor.lhs.false2
  %5 = load ptr, ptr %pZip.addr, align 8
  %m_total_files = getelementptr inbounds %struct.mz_zip_archive, ptr %5, i32 0, i32 2
  %6 = load i32, ptr %m_total_files, align 8
  %cmp3 = icmp eq i32 %6, 65535
  br i1 %cmp3, label %if.then7, label %lor.lhs.false4

lor.lhs.false4:                                   ; preds = %if.end
  %7 = load ptr, ptr %pZip.addr, align 8
  %m_archive_size = getelementptr inbounds %struct.mz_zip_archive, ptr %7, i32 0, i32 0
  %8 = load i64, ptr %m_archive_size, align 8
  %add = add i64 %8, 46
  %add5 = add i64 %add, 30
  %cmp6 = icmp ugt i64 %add5, 4294967295
  br i1 %cmp6, label %if.then7, label %if.end8

if.then7:                                         ; preds = %lor.lhs.false4, %if.end
  store i32 0, ptr %retval, align 4
  br label %return

if.end8:                                          ; preds = %lor.lhs.false4
  %9 = load ptr, ptr %pZip.addr, align 8
  %m_pState9 = getelementptr inbounds %struct.mz_zip_archive, ptr %9, i32 0, i32 15
  %10 = load ptr, ptr %m_pState9, align 8
  store ptr %10, ptr %pState, align 8
  %11 = load ptr, ptr %pState, align 8
  %m_pFile = getelementptr inbounds %struct.mz_zip_internal_state_tag, ptr %11, i32 0, i32 6
  %12 = load ptr, ptr %m_pFile, align 8
  %tobool10 = icmp ne ptr %12, null
  br i1 %tobool10, label %if.then11, label %if.else

if.then11:                                        ; preds = %if.end8
  %13 = load ptr, ptr %pZip.addr, align 8
  %m_pIO_opaque = getelementptr inbounds %struct.mz_zip_archive, ptr %13, i32 0, i32 14
  %14 = load ptr, ptr %m_pIO_opaque, align 8
  %15 = load ptr, ptr %pZip.addr, align 8
  %cmp12 = icmp ne ptr %14, %15
  br i1 %cmp12, label %if.then13, label %if.end14

if.then13:                                        ; preds = %if.then11
  store i32 0, ptr %retval, align 4
  br label %return

if.end14:                                         ; preds = %if.then11
  %16 = load ptr, ptr %pFilename.addr, align 8
  %tobool15 = icmp ne ptr %16, null
  br i1 %tobool15, label %if.end17, label %if.then16

if.then16:                                        ; preds = %if.end14
  store i32 0, ptr %retval, align 4
  br label %return

if.end17:                                         ; preds = %if.end14
  %17 = load ptr, ptr %pZip.addr, align 8
  %m_pWrite = getelementptr inbounds %struct.mz_zip_archive, ptr %17, i32 0, i32 12
  store ptr @mz_zip_file_write_func, ptr %m_pWrite, align 8
  %18 = load ptr, ptr %pFilename.addr, align 8
  %19 = load ptr, ptr %pState, align 8
  %m_pFile18 = getelementptr inbounds %struct.mz_zip_internal_state_tag, ptr %19, i32 0, i32 6
  %20 = load ptr, ptr %m_pFile18, align 8
  %call = call ptr @freopen(ptr noundef %18, ptr noundef @.str.17, ptr noundef %20)
  %21 = load ptr, ptr %pState, align 8
  %m_pFile19 = getelementptr inbounds %struct.mz_zip_internal_state_tag, ptr %21, i32 0, i32 6
  store ptr %call, ptr %m_pFile19, align 8
  %cmp20 = icmp eq ptr null, %call
  br i1 %cmp20, label %if.then21, label %if.end23

if.then21:                                        ; preds = %if.end17
  %22 = load ptr, ptr %pZip.addr, align 8
  %call22 = call i32 @mz_zip_reader_end(ptr noundef %22)
  store i32 0, ptr %retval, align 4
  br label %return

if.end23:                                         ; preds = %if.end17
  br label %if.end37

if.else:                                          ; preds = %if.end8
  %23 = load ptr, ptr %pState, align 8
  %m_pMem = getelementptr inbounds %struct.mz_zip_internal_state_tag, ptr %23, i32 0, i32 8
  %24 = load ptr, ptr %m_pMem, align 8
  %tobool24 = icmp ne ptr %24, null
  br i1 %tobool24, label %if.then25, label %if.else31

if.then25:                                        ; preds = %if.else
  %25 = load ptr, ptr %pZip.addr, align 8
  %m_pIO_opaque26 = getelementptr inbounds %struct.mz_zip_archive, ptr %25, i32 0, i32 14
  %26 = load ptr, ptr %m_pIO_opaque26, align 8
  %27 = load ptr, ptr %pZip.addr, align 8
  %cmp27 = icmp ne ptr %26, %27
  br i1 %cmp27, label %if.then28, label %if.end29

if.then28:                                        ; preds = %if.then25
  store i32 0, ptr %retval, align 4
  br label %return

if.end29:                                         ; preds = %if.then25
  %28 = load ptr, ptr %pState, align 8
  %m_mem_size = getelementptr inbounds %struct.mz_zip_internal_state_tag, ptr %28, i32 0, i32 9
  %29 = load i64, ptr %m_mem_size, align 8
  %30 = load ptr, ptr %pState, align 8
  %m_mem_capacity = getelementptr inbounds %struct.mz_zip_internal_state_tag, ptr %30, i32 0, i32 10
  store i64 %29, ptr %m_mem_capacity, align 8
  %31 = load ptr, ptr %pZip.addr, align 8
  %m_pWrite30 = getelementptr inbounds %struct.mz_zip_archive, ptr %31, i32 0, i32 12
  store ptr @mz_zip_heap_write_func, ptr %m_pWrite30, align 8
  br label %if.end36

if.else31:                                        ; preds = %if.else
  %32 = load ptr, ptr %pZip.addr, align 8
  %m_pWrite32 = getelementptr inbounds %struct.mz_zip_archive, ptr %32, i32 0, i32 12
  %33 = load ptr, ptr %m_pWrite32, align 8
  %tobool33 = icmp ne ptr %33, null
  br i1 %tobool33, label %if.end35, label %if.then34

if.then34:                                        ; preds = %if.else31
  store i32 0, ptr %retval, align 4
  br label %return

if.end35:                                         ; preds = %if.else31
  br label %if.end36

if.end36:                                         ; preds = %if.end35, %if.end29
  br label %if.end37

if.end37:                                         ; preds = %if.end36, %if.end23
  %34 = load ptr, ptr %pZip.addr, align 8
  %m_central_directory_file_ofs = getelementptr inbounds %struct.mz_zip_archive, ptr %34, i32 0, i32 1
  %35 = load i64, ptr %m_central_directory_file_ofs, align 8
  %36 = load ptr, ptr %pZip.addr, align 8
  %m_archive_size38 = getelementptr inbounds %struct.mz_zip_archive, ptr %36, i32 0, i32 0
  store i64 %35, ptr %m_archive_size38, align 8
  %37 = load ptr, ptr %pZip.addr, align 8
  %m_zip_mode39 = getelementptr inbounds %struct.mz_zip_archive, ptr %37, i32 0, i32 3
  store i32 2, ptr %m_zip_mode39, align 4
  %38 = load ptr, ptr %pZip.addr, align 8
  %m_central_directory_file_ofs40 = getelementptr inbounds %struct.mz_zip_archive, ptr %38, i32 0, i32 1
  store i64 0, ptr %m_central_directory_file_ofs40, align 8
  store i32 1, ptr %retval, align 4
  br label %return

return:                                           ; preds = %if.end37, %if.then34, %if.then28, %if.then21, %if.then16, %if.then13, %if.then7, %if.then
  %39 = load i32, ptr %retval, align 4
  ret i32 %39
}

; Function Attrs: nounwind uwtable
define hidden ptr @zip_open(ptr noundef %zipname, i32 noundef %level, i8 noundef signext %mode) #0 {
entry:
  %retval = alloca ptr, align 8
  %zipname.addr = alloca ptr, align 8
  %level.addr = alloca i32, align 4
  %mode.addr = alloca i8, align 1
  %zip = alloca ptr, align 8
  store ptr %zipname, ptr %zipname.addr, align 8
  store i32 %level, ptr %level.addr, align 4
  store i8 %mode, ptr %mode.addr, align 1
  store ptr null, ptr %zip, align 8
  %0 = load ptr, ptr %zipname.addr, align 8
  %tobool = icmp ne ptr %0, null
  br i1 %tobool, label %lor.lhs.false, label %if.then

lor.lhs.false:                                    ; preds = %entry
  %1 = load ptr, ptr %zipname.addr, align 8
  %call = call i64 @strlen(ptr noundef %1) #13
  %cmp = icmp ult i64 %call, 1
  br i1 %cmp, label %if.then, label %if.end

if.then:                                          ; preds = %lor.lhs.false, %entry
  br label %cleanup

if.end:                                           ; preds = %lor.lhs.false
  %2 = load i32, ptr %level.addr, align 4
  %cmp1 = icmp slt i32 %2, 0
  br i1 %cmp1, label %if.then2, label %if.end3

if.then2:                                         ; preds = %if.end
  store i32 6, ptr %level.addr, align 4
  br label %if.end3

if.end3:                                          ; preds = %if.then2, %if.end
  %3 = load i32, ptr %level.addr, align 4
  %and = and i32 %3, 15
  %cmp4 = icmp sgt i32 %and, 10
  br i1 %cmp4, label %if.then5, label %if.end6

if.then5:                                         ; preds = %if.end3
  br label %cleanup

if.end6:                                          ; preds = %if.end3
  %call7 = call noalias ptr @calloc(i64 noundef 1, i64 noundef 319608) #14
  store ptr %call7, ptr %zip, align 8
  %4 = load ptr, ptr %zip, align 8
  %tobool8 = icmp ne ptr %4, null
  br i1 %tobool8, label %if.end10, label %if.then9

if.then9:                                         ; preds = %if.end6
  br label %cleanup

if.end10:                                         ; preds = %if.end6
  %5 = load i32, ptr %level.addr, align 4
  %6 = load ptr, ptr %zip, align 8
  %level11 = getelementptr inbounds %struct.zip_t, ptr %6, i32 0, i32 1
  store i32 %5, ptr %level11, align 8
  %7 = load i8, ptr %mode.addr, align 1
  %conv = sext i8 %7 to i32
  switch i32 %conv, label %sw.default [
    i32 119, label %sw.bb
    i32 114, label %sw.bb16
    i32 97, label %sw.bb16
    i32 100, label %sw.bb16
  ]

sw.bb:                                            ; preds = %if.end10
  %8 = load ptr, ptr %zip, align 8
  %archive = getelementptr inbounds %struct.zip_t, ptr %8, i32 0, i32 0
  %9 = load ptr, ptr %zipname.addr, align 8
  %call12 = call i32 @mz_zip_writer_init_file(ptr noundef %archive, ptr noundef %9, i64 noundef 0)
  %tobool13 = icmp ne i32 %call12, 0
  br i1 %tobool13, label %if.end15, label %if.then14

if.then14:                                        ; preds = %sw.bb
  br label %cleanup

if.end15:                                         ; preds = %sw.bb
  br label %sw.epilog

sw.bb16:                                          ; preds = %if.end10, %if.end10, %if.end10
  %10 = load ptr, ptr %zip, align 8
  %archive17 = getelementptr inbounds %struct.zip_t, ptr %10, i32 0, i32 0
  %11 = load ptr, ptr %zipname.addr, align 8
  %12 = load ptr, ptr %zip, align 8
  %level18 = getelementptr inbounds %struct.zip_t, ptr %12, i32 0, i32 1
  %13 = load i32, ptr %level18, align 8
  %or = or i32 %13, 2048
  %call19 = call i32 @mz_zip_reader_init_file(ptr noundef %archive17, ptr noundef %11, i32 noundef %or)
  %tobool20 = icmp ne i32 %call19, 0
  br i1 %tobool20, label %if.end22, label %if.then21

if.then21:                                        ; preds = %sw.bb16
  br label %cleanup

if.end22:                                         ; preds = %sw.bb16
  %14 = load i8, ptr %mode.addr, align 1
  %conv23 = sext i8 %14 to i32
  %cmp24 = icmp eq i32 %conv23, 97
  br i1 %cmp24, label %land.lhs.true, label %lor.lhs.false26

lor.lhs.false26:                                  ; preds = %if.end22
  %15 = load i8, ptr %mode.addr, align 1
  %conv27 = sext i8 %15 to i32
  %cmp28 = icmp eq i32 %conv27, 100
  br i1 %cmp28, label %land.lhs.true, label %if.end36

land.lhs.true:                                    ; preds = %lor.lhs.false26, %if.end22
  %16 = load ptr, ptr %zip, align 8
  %archive30 = getelementptr inbounds %struct.zip_t, ptr %16, i32 0, i32 0
  %17 = load ptr, ptr %zipname.addr, align 8
  %call31 = call i32 @mz_zip_writer_init_from_reader(ptr noundef %archive30, ptr noundef %17)
  %tobool32 = icmp ne i32 %call31, 0
  br i1 %tobool32, label %if.end36, label %if.then33

if.then33:                                        ; preds = %land.lhs.true
  %18 = load ptr, ptr %zip, align 8
  %archive34 = getelementptr inbounds %struct.zip_t, ptr %18, i32 0, i32 0
  %call35 = call i32 @mz_zip_reader_end(ptr noundef %archive34)
  br label %cleanup

if.end36:                                         ; preds = %land.lhs.true, %lor.lhs.false26
  br label %sw.epilog

sw.default:                                       ; preds = %if.end10
  br label %cleanup

sw.epilog:                                        ; preds = %if.end36, %if.end15
  %19 = load ptr, ptr %zip, align 8
  store ptr %19, ptr %retval, align 8
  br label %return

cleanup:                                          ; preds = %sw.default, %if.then33, %if.then21, %if.then14, %if.then9, %if.then5, %if.then
  br label %do.body

do.body:                                          ; preds = %cleanup
  %20 = load ptr, ptr %zip, align 8
  %tobool37 = icmp ne ptr %20, null
  br i1 %tobool37, label %if.then38, label %if.end39

if.then38:                                        ; preds = %do.body
  %21 = load ptr, ptr %zip, align 8
  call void @free(ptr noundef %21) #10
  store ptr null, ptr %zip, align 8
  br label %if.end39

if.end39:                                         ; preds = %if.then38, %do.body
  br label %do.end

do.end:                                           ; preds = %if.end39
  store ptr null, ptr %retval, align 8
  br label %return

return:                                           ; preds = %do.end, %sw.epilog
  %22 = load ptr, ptr %retval, align 8
  ret ptr %22
}