; Function Attrs: nounwind uwtable
define hidden noundef ptr @zip_open(ptr noundef %zipname, i32 noundef %level, i8 noundef signext %mode) local_unnamed_addr #4 {
entry:
  %tobool.not = icmp eq ptr %zipname, null
  br i1 %tobool.not, label %return, label %lor.lhs.false

lor.lhs.false:                                    ; preds = %entry
  %char0 = load i8, ptr %zipname, align 1
  %cmp = icmp eq i8 %char0, 0
  br i1 %cmp, label %return, label %if.end

if.end:                                           ; preds = %lor.lhs.false
  %cmp1 = icmp slt i32 %level, 0
  %spec.store.select = select i1 %cmp1, i32 6, i32 %level
  %and = and i32 %spec.store.select, 15
  %cmp4 = icmp samesign ugt i32 %and, 10
  br i1 %cmp4, label %return, label %if.end6

if.end6:                                          ; preds = %if.end
  %call7 = tail call noalias dereferenceable_or_null(319608) ptr @calloc(i64 noundef 1, i64 noundef 319608) #34
  %tobool8.not = icmp eq ptr %call7, null
  br i1 %tobool8.not, label %return, label %if.end10

if.end10:                                         ; preds = %if.end6
  %level11 = getelementptr inbounds nuw i8, ptr %call7, i64 112
  store i32 %spec.store.select, ptr %level11, align 8
  switch i8 %mode, label %if.then38 [
    i8 119, label %sw.bb
    i8 114, label %sw.bb16
    i8 97, label %sw.bb16
    i8 100, label %sw.bb16
  ]

sw.bb:                                            ; preds = %if.end10
  %call12 = tail call i32 @mz_zip_writer_init_file(ptr noundef nonnull %call7, ptr noundef nonnull %zipname, i64 noundef 0)
  %tobool13.not = icmp eq i32 %call12, 0
  br i1 %tobool13.not, label %if.then38, label %return

sw.bb16:                                          ; preds = %if.end10, %if.end10, %if.end10
  %or = or i32 %spec.store.select, 2048
  %call19 = tail call i32 @mz_zip_reader_init_file(ptr noundef nonnull %call7, ptr noundef nonnull %zipname, i32 noundef %or)
  %tobool20.not = icmp eq i32 %call19, 0
  br i1 %tobool20.not, label %if.then38, label %if.end22

if.end22:                                         ; preds = %sw.bb16
  switch i8 %mode, label %return [
    i8 100, label %lor.lhs.false.i
    i8 97, label %lor.lhs.false.i
  ]

lor.lhs.false.i:                                  ; preds = %if.end22, %if.end22
  %m_pState.i = getelementptr inbounds nuw i8, ptr %call7, i64 104
  %0 = load ptr, ptr %m_pState.i, align 8
  %tobool1.not.i = icmp eq ptr %0, null
  br i1 %tobool1.not.i, label %if.then33, label %lor.lhs.false2.i

lor.lhs.false2.i:                                 ; preds = %lor.lhs.false.i
  %m_zip_mode.i = getelementptr inbounds nuw i8, ptr %call7, i64 20
  %1 = load i32, ptr %m_zip_mode.i, align 4
  %cmp.not.i = icmp eq i32 %1, 1
  br i1 %cmp.not.i, label %if.end.i, label %if.then33

if.end.i:                                         ; preds = %lor.lhs.false2.i
  %m_total_files.i = getelementptr inbounds nuw i8, ptr %call7, i64 16
  %2 = load i32, ptr %m_total_files.i, align 8
  %cmp3.i = icmp eq i32 %2, 65535
  br i1 %cmp3.i, label %if.then33, label %lor.lhs.false4.i

lor.lhs.false4.i:                                 ; preds = %if.end.i
  %3 = load i64, ptr %call7, align 8
  %4 = add i64 %3, -4294967220
  %cmp6.i = icmp ult i64 %4, -4294967296
  br i1 %cmp6.i, label %if.then33, label %if.end8.i

if.end8.i:                                        ; preds = %lor.lhs.false4.i
  %m_pFile.i = getelementptr inbounds nuw i8, ptr %0, i64 112
  %5 = load ptr, ptr %m_pFile.i, align 8
  %tobool10.not.i = icmp eq ptr %5, null
  br i1 %tobool10.not.i, label %if.else.i, label %if.then11.i

if.then11.i:                                      ; preds = %if.end8.i
  %m_pIO_opaque.i = getelementptr inbounds nuw i8, ptr %call7, i64 96
  %6 = load ptr, ptr %m_pIO_opaque.i, align 8
  %cmp12.not.i.not = icmp eq ptr %6, %call7
  br i1 %cmp12.not.i.not, label %if.end17.i, label %if.then33

if.end17.i:                                       ; preds = %if.then11.i
  %m_pWrite.i = getelementptr inbounds nuw i8, ptr %call7, i64 80
  store ptr @mz_zip_file_write_func, ptr %m_pWrite.i, align 8
  %7 = load ptr, ptr %m_pFile.i, align 8
  %call.i = tail call ptr @freopen(ptr noundef nonnull %zipname, ptr noundef nonnull @.str.17, ptr noundef %7) #30
  store ptr %call.i, ptr %m_pFile.i, align 8
  %cmp20.i = icmp eq ptr %call.i, null
  br i1 %cmp20.i, label %if.then21.i, label %mz_zip_writer_init_from_reader.exit

if.then21.i:                                      ; preds = %if.end17.i
  %call22.i = tail call i32 @mz_zip_reader_end(ptr noundef nonnull %call7)
  br label %if.then33

if.else.i:                                        ; preds = %if.end8.i
  %m_pMem.i = getelementptr inbounds nuw i8, ptr %0, i64 128
  %8 = load ptr, ptr %m_pMem.i, align 8
  %tobool24.not.i = icmp eq ptr %8, null
  br i1 %tobool24.not.i, label %if.else31.i, label %if.then25.i

if.then25.i:                                      ; preds = %if.else.i
  %m_pIO_opaque26.i = getelementptr inbounds nuw i8, ptr %call7, i64 96
  %9 = load ptr, ptr %m_pIO_opaque26.i, align 8
  %cmp27.not.i = icmp eq ptr %9, %call7
  br i1 %cmp27.not.i, label %if.end29.i, label %if.then33

if.end29.i:                                       ; preds = %if.then25.i
  %m_mem_size.i = getelementptr inbounds nuw i8, ptr %0, i64 136
  %10 = load i64, ptr %m_mem_size.i, align 8
  %m_mem_capacity.i = getelementptr inbounds nuw i8, ptr %0, i64 144
  store i64 %10, ptr %m_mem_capacity.i, align 8
  %m_pWrite30.i = getelementptr inbounds nuw i8, ptr %call7, i64 80
  store ptr @mz_zip_heap_write_func, ptr %m_pWrite30.i, align 8
  br label %mz_zip_writer_init_from_reader.exit

if.else31.i:                                      ; preds = %if.else.i
  %m_pWrite32.i = getelementptr inbounds nuw i8, ptr %call7, i64 80
  %11 = load ptr, ptr %m_pWrite32.i, align 8
  %tobool33.not.i = icmp eq ptr %11, null
  br i1 %tobool33.not.i, label %if.then33, label %mz_zip_writer_init_from_reader.exit

mz_zip_writer_init_from_reader.exit:              ; preds = %if.end17.i, %if.end29.i, %if.else31.i
  %m_central_directory_file_ofs.i = getelementptr inbounds nuw i8, ptr %call7, i64 8
  %12 = load i64, ptr %m_central_directory_file_ofs.i, align 8
  store i64 %12, ptr %call7, align 8
  store i32 2, ptr %m_zip_mode.i, align 4
  store i64 0, ptr %m_central_directory_file_ofs.i, align 8
  br label %return

if.then33:                                        ; preds = %if.then21.i, %lor.lhs.false2.i, %lor.lhs.false.i, %lor.lhs.false4.i, %if.end.i, %if.then11.i, %if.then25.i, %if.else31.i
  %call35 = tail call i32 @mz_zip_reader_end(ptr noundef nonnull %call7)
  br label %if.then38

if.then38:                                        ; preds = %if.end10, %sw.bb16, %sw.bb, %if.then33
  tail call void @free(ptr noundef nonnull %call7) #30
  br label %return

return:                                           ; preds = %entry, %if.end6, %if.end, %lor.lhs.false, %mz_zip_writer_init_from_reader.exit, %if.then38, %sw.bb, %if.end22
  %retval.0 = phi ptr [ %call7, %if.end22 ], [ %call7, %mz_zip_writer_init_from_reader.exit ], [ %call7, %sw.bb ], [ null, %if.then38 ], [ null, %lor.lhs.false ], [ null, %if.end ], [ null, %if.end6 ], [ null, %entry ]
  ret ptr %retval.0
}